; Function Attrs: mustprogress nounwind uwtable
define internal fastcc void @_ZN5Yosys7hashlib4dictINS_5RTLIL8IdStringEN12_GLOBAL__N_16LUTPinENS0_8hash_opsIS3_EEED2Ev(ptr nocapture noundef nonnull readonly align 8 dereferenceable(49) %0) unnamed_addr #3 align 2 personality ptr @__gxx_personality_v0 {
  %2 = getelementptr inbounds i8, ptr %0, i64 24
  %3 = load ptr, ptr %2, align 8
  %4 = getelementptr inbounds i8, ptr %0, i64 32
  %5 = load ptr, ptr %4, align 8
  tail call fastcc void @_ZSt8_DestroyIPN5Yosys7hashlib4dictINS0_5RTLIL8IdStringEN12_GLOBAL__N_16LUTPinENS1_8hash_opsIS4_EEE7entry_tEEvT_SC_(ptr noundef %3, ptr noundef %5)
  %.val.i = load ptr, ptr %2, align 8
  %.not.i.i.i = icmp eq ptr %.val.i, null
  br i1 %.not.i.i.i, label %_ZNSt6vectorIN5Yosys7hashlib4dictINS0_5RTLIL8IdStringEN12_GLOBAL__N_16LUTPinENS1_8hash_opsIS4_EEE7entry_tESaISA_EED2Ev.exit, label %6

6:                                                ; preds = %1
  tail call void @_ZdlPv(ptr noundef nonnull %.val.i) #19
  br label %_ZNSt6vectorIN5Yosys7hashlib4dictINS0_5RTLIL8IdStringEN12_GLOBAL__N_16LUTPinENS1_8hash_opsIS4_EEE7entry_tESaISA_EED2Ev.exit

_ZNSt6vectorIN5Yosys7hashlib4dictINS0_5RTLIL8IdStringEN12_GLOBAL__N_16LUTPinENS1_8hash_opsIS4_EEE7entry_tESaISA_EED2Ev.exit: ; preds = %1, %6
  %7 = load ptr, ptr %0, align 8
  %.not.i.i.i1 = icmp eq ptr %7, null
  br i1 %.not.i.i.i1, label %_ZNSt6vectorIiSaIiEED2Ev.exit, label %8

8:                                                ; preds = %_ZNSt6vectorIN5Yosys7hashlib4dictINS0_5RTLIL8IdStringEN12_GLOBAL__N_16LUTPinENS1_8hash_opsIS4_EEE7entry_tESaISA_EED2Ev.exit
  tail call void @_ZdlPv(ptr noundef nonnull %7) #19
  br label %_ZNSt6vectorIiSaIiEED2Ev.exit

_ZNSt6vectorIiSaIiEED2Ev.exit:                    ; preds = %_ZNSt6vectorIN5Yosys7hashlib4dictINS0_5RTLIL8IdStringEN12_GLOBAL__N_16LUTPinENS1_8hash_opsIS4_EEE7entry_tESaISA_EED2Ev.exit, %8
  ret void
}